; Function Attrs: mustprogress uwtable
define internal noundef nonnull ptr @_ZN11opencv_test12_GLOBAL__N_147radius_matchradius_match_distances_test_factory10CreateTestEv(ptr nonnull readnone align 8 captures(none) %0) unnamed_addr #4 align 2 personality ptr @__gxx_personality_v0 {
  %2 = alloca %"class.std::__cxx11::basic_string", align 8
  %3 = alloca %"class.std::allocator", align 1
  %4 = invoke noalias noundef nonnull dereferenceable(256) ptr @_Znwm(i64 noundef 256) #24
          to label %5 unwind label %7

5:                                                ; preds = %1
  invoke void @_ZN4perf8TestBaseC2Ev(ptr noundef nonnull align 8 dereferenceable(249) %4)
          to label %_ZN11opencv_test12_GLOBAL__N_145radius_match_radius_match_distances_test_TestC2Ev.exit unwind label %9

_ZN11opencv_test12_GLOBAL__N_145radius_match_radius_match_distances_test_TestC2Ev.exit: ; preds = %5
  store ptr getelementptr inbounds nuw inrange(-16, 56) (i8, ptr @_ZTVN11opencv_test12_GLOBAL__N_145radius_match_radius_match_distances_test_TestE, i64 16), ptr %4, align 8, !tbaa !4
  %6 = getelementptr inbounds nuw i8, ptr %4, i64 248
  store i8 0, ptr %6, align 8, !tbaa !106
  br label %43

7:                                                ; preds = %1
  %8 = landingpad { ptr, i32 }
          catch ptr @_ZTIN6cvtest7details21SkipTestExceptionBaseE
  br label %11

9:                                                ; preds = %5
  %10 = landingpad { ptr, i32 }
          cleanup
          catch ptr @_ZTIN6cvtest7details21SkipTestExceptionBaseE
  tail call void @_ZdlPv(ptr noundef nonnull %4) #23
  br label %11

11:                                               ; preds = %9, %7
  %.pn = phi { ptr, i32 } [ %10, %9 ], [ %8, %7 ]
  %.06 = extractvalue { ptr, i32 } %.pn, 1
  %12 = tail call i32 @llvm.eh.typeid.for.p0(ptr nonnull @_ZTIN6cvtest7details21SkipTestExceptionBaseE) #21
  %13 = icmp eq i32 %.06, %12
  br i1 %13, label %14, label %44

14:                                               ; preds = %11
  %.07 = extractvalue { ptr, i32 } %.pn, 0
  %15 = tail call ptr @__cxa_begin_catch(ptr %.07) #21
  %16 = invoke noalias noundef nonnull dereferenceable(48) ptr @_Znwm(i64 noundef 48) #24
          to label %17 unwind label %30

17:                                               ; preds = %14
  call void @llvm.lifetime.start.p0(i64 32, ptr nonnull %2) #21
  %18 = load ptr, ptr %15, align 8, !tbaa !4
  %19 = getelementptr inbounds nuw i8, ptr %18, i64 16
  %20 = load ptr, ptr %19, align 8
  %21 = tail call noundef ptr %20(ptr noundef nonnull align 8 dereferenceable(148) %15) #21
  call void @llvm.lifetime.start.p0(i64 1, ptr nonnull %3) #21
  invoke void @_ZNSt7__cxx1112basic_stringIcSt11char_traitsIcESaIcEEC2EPKcRKS3_(ptr noundef nonnull align 8 dereferenceable(32) %2, ptr noundef %21, ptr noundef nonnull align 1 dereferenceable(1) %3)
          to label %22 unwind label %32

22:                                               ; preds = %17
  invoke void @_ZN12SkipThisTestC2ERKNSt7__cxx1112basic_stringIcSt11char_traitsIcESaIcEEE(ptr noundef nonnull align 8 dereferenceable(48) %16, ptr noundef nonnull align 8 dereferenceable(32) %2)
          to label %23 unwind label %34

23:                                               ; preds = %22
  %24 = load ptr, ptr %2, align 8, !tbaa !33
  %25 = getelementptr inbounds nuw i8, ptr %2, i64 16
  %26 = icmp eq ptr %24, %25
  br i1 %26, label %_ZNKSt7__cxx1112basic_stringIcSt11char_traitsIcESaIcEE11_M_is_localEv.exit.thread.i.i, label %_ZNKSt7__cxx1112basic_stringIcSt11char_traitsIcESaIcEE11_M_is_localEv.exit.i.i

_ZNKSt7__cxx1112basic_stringIcSt11char_traitsIcESaIcEE11_M_is_localEv.exit.thread.i.i: ; preds = %23
  %27 = getelementptr inbounds nuw i8, ptr %2, i64 8
  %28 = load i64, ptr %27, align 8, !tbaa !37
  %29 = icmp ult i64 %28, 16
  call void @llvm.assume(i1 %29)
  br label %_ZNSt7__cxx1112basic_stringIcSt11char_traitsIcESaIcEED2Ev.exit

_ZNKSt7__cxx1112basic_stringIcSt11char_traitsIcESaIcEE11_M_is_localEv.exit.i.i: ; preds = %23
  call void @_ZdlPv(ptr noundef %24) #23
  br label %_ZNSt7__cxx1112basic_stringIcSt11char_traitsIcESaIcEED2Ev.exit

_ZNSt7__cxx1112basic_stringIcSt11char_traitsIcESaIcEED2Ev.exit: ; preds = %_ZNKSt7__cxx1112basic_stringIcSt11char_traitsIcESaIcEE11_M_is_localEv.exit.thread.i.i, %_ZNKSt7__cxx1112basic_stringIcSt11char_traitsIcESaIcEE11_M_is_localEv.exit.i.i
  call void @llvm.lifetime.end.p0(i64 1, ptr nonnull %3) #21
  call void @llvm.lifetime.end.p0(i64 32, ptr nonnull %2) #21
  call void @__cxa_end_catch()
  br label %43

30:                                               ; preds = %14
  %31 = landingpad { ptr, i32 }
          cleanup
  br label %42

32:                                               ; preds = %17
  %33 = landingpad { ptr, i32 }
          cleanup
  br label %_ZNSt7__cxx1112basic_stringIcSt11char_traitsIcESaIcEED2Ev.exit17

34:                                               ; preds = %22
  %35 = landingpad { ptr, i32 }
          cleanup
  %36 = load ptr, ptr %2, align 8, !tbaa !33
  %37 = getelementptr inbounds nuw i8, ptr %2, i64 16
  %38 = icmp eq ptr %36, %37
  br i1 %38, label %_ZNKSt7__cxx1112basic_stringIcSt11char_traitsIcESaIcEE11_M_is_localEv.exit.thread.i.i16, label %_ZNKSt7__cxx1112basic_stringIcSt11char_traitsIcESaIcEE11_M_is_localEv.exit.i.i15

_ZNKSt7__cxx1112basic_stringIcSt11char_traitsIcESaIcEE11_M_is_localEv.exit.thread.i.i16: ; preds = %34
  %39 = getelementptr inbounds nuw i8, ptr %2, i64 8
  %40 = load i64, ptr %39, align 8, !tbaa !37
  %41 = icmp ult i64 %40, 16
  call void @llvm.assume(i1 %41)
  br label %_ZNSt7__cxx1112basic_stringIcSt11char_traitsIcESaIcEED2Ev.exit17

_ZNKSt7__cxx1112basic_stringIcSt11char_traitsIcESaIcEE11_M_is_localEv.exit.i.i15: ; preds = %34
  call void @_ZdlPv(ptr noundef %36) #23
  br label %_ZNSt7__cxx1112basic_stringIcSt11char_traitsIcESaIcEED2Ev.exit17

_ZNSt7__cxx1112basic_stringIcSt11char_traitsIcESaIcEED2Ev.exit17: ; preds = %_ZNKSt7__cxx1112basic_stringIcSt11char_traitsIcESaIcEE11_M_is_localEv.exit.i.i15, %_ZNKSt7__cxx1112basic_stringIcSt11char_traitsIcESaIcEE11_M_is_localEv.exit.thread.i.i16, %32
  %.pn12 = phi { ptr, i32 } [ %33, %32 ], [ %35, %_ZNKSt7__cxx1112basic_stringIcSt11char_traitsIcESaIcEE11_M_is_localEv.exit.thread.i.i16 ], [ %35, %_ZNKSt7__cxx1112basic_stringIcSt11char_traitsIcESaIcEE11_M_is_localEv.exit.i.i15 ]
  call void @llvm.lifetime.end.p0(i64 1, ptr nonnull %3) #21
  call void @llvm.lifetime.end.p0(i64 32, ptr nonnull %2) #21
  call void @_ZdlPv(ptr noundef nonnull %16) #23
  br label %42

42:                                               ; preds = %_ZNSt7__cxx1112basic_stringIcSt11char_traitsIcESaIcEED2Ev.exit17, %30
  %.pn12.pn = phi { ptr, i32 } [ %.pn12, %_ZNSt7__cxx1112basic_stringIcSt11char_traitsIcESaIcEED2Ev.exit17 ], [ %31, %30 ]
  invoke void @__cxa_end_catch()
          to label %44 unwind label %45

43:                                               ; preds = %_ZN11opencv_test12_GLOBAL__N_145radius_match_radius_match_distances_test_TestC2Ev.exit, %_ZNSt7__cxx1112basic_stringIcSt11char_traitsIcESaIcEED2Ev.exit
  %.0 = phi ptr [ %16, %_ZNSt7__cxx1112basic_stringIcSt11char_traitsIcESaIcEED2Ev.exit ], [ %4, %_ZN11opencv_test12_GLOBAL__N_145radius_match_radius_match_distances_test_TestC2Ev.exit ]
  ret ptr %.0

44:                                               ; preds = %42, %11
  %.merged = phi { ptr, i32 } [ %.pn, %11 ], [ %.pn12.pn, %42 ]
  resume { ptr, i32 } %.merged

45:                                               ; preds = %42
  %46 = landingpad { ptr, i32 }
          catch ptr null
  %47 = extractvalue { ptr, i32 } %46, 0
  call void @__clang_call_terminate(ptr %47) #22
  unreachable
}